target datalayout = "e-m:e-p270:32:32-p271:32:32-p272:64:64-i64:64-i128:128-f80:128-n8:16:32:64-S128"
target triple = "x86_64-pc-linux-gnu"

%struct.getnameinfo_arg = type { ptr, i32, i32, ptr, i64, ptr, i64, i32, i32, i32, i32, i32, %union.pthread_mutex_t, %union.pthread_cond_t }
%union.pthread_mutex_t = type { %struct.__pthread_mutex_s }
%struct.__pthread_mutex_s = type { i32, i32, i32, i32, i32, i16, i16, %struct.__pthread_internal_list }
%struct.__pthread_internal_list = type { ptr, ptr }
%union.pthread_cond_t = type { %struct.__pthread_cond_s }
%struct.__pthread_cond_s = type { %union.__atomic_wide_counter, %union.__atomic_wide_counter, [2 x i32], [2 x i32], i32, i32, [2 x i32] }
%union.__atomic_wide_counter = type { i64 }

; Function Attrs: nounwind sspstrong uwtable
define internal void @free_getnameinfo_arg(ptr noundef %0) #0 {
  %2 = alloca ptr, align 8
  store ptr %0, ptr %2, align 8, !tbaa !33
  %3 = load ptr, ptr %2, align 8, !tbaa !33
  %4 = getelementptr inbounds nuw %struct.getnameinfo_arg, ptr %3, i32 0, i32 13
  call void @rb_native_cond_destroy(ptr noundef %4)
  %5 = load ptr, ptr %2, align 8, !tbaa !33
  %6 = getelementptr inbounds nuw %struct.getnameinfo_arg, ptr %5, i32 0, i32 12
  call void @rb_nativethread_lock_destroy(ptr noundef %6)
  %7 = load ptr, ptr %2, align 8, !tbaa !33
  call void @free(ptr noundef %7) #24
  ret void
}

; Function Attrs: nounwind sspstrong uwtable
define internal ptr @do_getnameinfo(ptr noundef %0) #0 {
  %2 = alloca ptr, align 8
  %3 = alloca ptr, align 8
  %4 = alloca i32, align 4
  %5 = alloca i32, align 4
  %6 = alloca i32, align 4
  store ptr %0, ptr %2, align 8, !tbaa !26
  call void @llvm.lifetime.start.p0(i64 8, ptr %3) #24
  %7 = load ptr, ptr %2, align 8, !tbaa !26
  store ptr %7, ptr %3, align 8, !tbaa !33
  call void @llvm.lifetime.start.p0(i64 4, ptr %4) #24
  call void @llvm.lifetime.start.p0(i64 4, ptr %5) #24
  %8 = load ptr, ptr %3, align 8, !tbaa !33
  %9 = getelementptr inbounds nuw %struct.getnameinfo_arg, ptr %8, i32 0, i32 0
  %10 = load ptr, ptr %9, align 8, !tbaa !43
  %11 = load ptr, ptr %3, align 8, !tbaa !33
  %12 = getelementptr inbounds nuw %struct.getnameinfo_arg, ptr %11, i32 0, i32 1
  %13 = load i32, ptr %12, align 8, !tbaa !44
  %14 = load ptr, ptr %3, align 8, !tbaa !33
  %15 = getelementptr inbounds nuw %struct.getnameinfo_arg, ptr %14, i32 0, i32 3
  %16 = load ptr, ptr %15, align 8, !tbaa !39
  %17 = load ptr, ptr %3, align 8, !tbaa !33
  %18 = getelementptr inbounds nuw %struct.getnameinfo_arg, ptr %17, i32 0, i32 4
  %19 = load i64, ptr %18, align 8, !tbaa !45
  %20 = trunc i64 %19 to i32
  %21 = load ptr, ptr %3, align 8, !tbaa !33
  %22 = getelementptr inbounds nuw %struct.getnameinfo_arg, ptr %21, i32 0, i32 5
  %23 = load ptr, ptr %22, align 8, !tbaa !40
  %24 = load ptr, ptr %3, align 8, !tbaa !33
  %25 = getelementptr inbounds nuw %struct.getnameinfo_arg, ptr %24, i32 0, i32 6
  %26 = load i64, ptr %25, align 8, !tbaa !46
  %27 = trunc i64 %26 to i32
  %28 = load ptr, ptr %3, align 8, !tbaa !33
  %29 = getelementptr inbounds nuw %struct.getnameinfo_arg, ptr %28, i32 0, i32 2
  %30 = load i32, ptr %29, align 4, !tbaa !47
  %31 = call i32 @getnameinfo(ptr noundef %10, i32 noundef %13, ptr noundef %16, i32 noundef %20, ptr noundef %23, i32 noundef %27, i32 noundef %30)
  store i32 %31, ptr %4, align 4, !tbaa !27
  %32 = call ptr @rb_errno_ptr()
  %33 = load i32, ptr %32, align 4, !tbaa !27
  store i32 %33, ptr %5, align 4, !tbaa !27
  call void @llvm.lifetime.start.p0(i64 4, ptr %6) #24
  store i32 0, ptr %6, align 4, !tbaa !27
  %34 = load ptr, ptr %3, align 8, !tbaa !33
  %35 = getelementptr inbounds nuw %struct.getnameinfo_arg, ptr %34, i32 0, i32 12
  call void @rb_nativethread_lock_lock(ptr noundef %35)
  %36 = load i32, ptr %4, align 4, !tbaa !27
  %37 = load ptr, ptr %3, align 8, !tbaa !33
  %38 = getelementptr inbounds nuw %struct.getnameinfo_arg, ptr %37, i32 0, i32 7
  store i32 %36, ptr %38, align 8, !tbaa !37
  %39 = load i32, ptr %5, align 4, !tbaa !27
  %40 = load ptr, ptr %3, align 8, !tbaa !33
  %41 = getelementptr inbounds nuw %struct.getnameinfo_arg, ptr %40, i32 0, i32 8
  store i32 %39, ptr %41, align 4, !tbaa !38
  %42 = load ptr, ptr %3, align 8, !tbaa !33
  %43 = getelementptr inbounds nuw %struct.getnameinfo_arg, ptr %42, i32 0, i32 11
  %44 = load i32, ptr %43, align 8, !tbaa !41
  %45 = icmp ne i32 %44, 0
  br i1 %45, label %51, label %46

46:                                               ; preds = %1
  %47 = load ptr, ptr %3, align 8, !tbaa !33
  %48 = getelementptr inbounds nuw %struct.getnameinfo_arg, ptr %47, i32 0, i32 10
  store i32 1, ptr %48, align 4, !tbaa !35
  %49 = load ptr, ptr %3, align 8, !tbaa !33
  %50 = getelementptr inbounds nuw %struct.getnameinfo_arg, ptr %49, i32 0, i32 13
  call void @rb_native_cond_signal(ptr noundef %50)
  br label %51

51:                                               ; preds = %46, %1
  %52 = load ptr, ptr %3, align 8, !tbaa !33
  %53 = getelementptr inbounds nuw %struct.getnameinfo_arg, ptr %52, i32 0, i32 9
  %54 = load i32, ptr %53, align 8, !tbaa !42
  %55 = add nsw i32 %54, -1
  store i32 %55, ptr %53, align 8, !tbaa !42
  %56 = icmp eq i32 %55, 0
  br i1 %56, label %57, label %58

57:                                               ; preds = %51
  store i32 1, ptr %6, align 4, !tbaa !27
  br label %58

58:                                               ; preds = %57, %51
  %59 = load ptr, ptr %3, align 8, !tbaa !33
  %60 = getelementptr inbounds nuw %struct.getnameinfo_arg, ptr %59, i32 0, i32 12
  call void @rb_nativethread_lock_unlock(ptr noundef %60)
  %61 = load i32, ptr %6, align 4, !tbaa !27
  %62 = icmp ne i32 %61, 0
  br i1 %62, label %63, label %65

63:                                               ; preds = %58
  %64 = load ptr, ptr %3, align 8, !tbaa !33
  call void @free_getnameinfo_arg(ptr noundef %64)
  br label %65

65:                                               ; preds = %63, %58
  call void @llvm.lifetime.end.p0(i64 4, ptr %6) #24
  call void @llvm.lifetime.end.p0(i64 4, ptr %5) #24
  call void @llvm.lifetime.end.p0(i64 4, ptr %4) #24
  call void @llvm.lifetime.end.p0(i64 8, ptr %3) #24
  ret ptr null
}