; Function Attrs: nounwind sspstrong uwtable
define internal noalias noundef ptr @do_getnameinfo(ptr noundef %0) #0 {
  %2 = load ptr, ptr %0, align 8, !tbaa !22
  %3 = getelementptr inbounds nuw i8, ptr %0, i64 8
  %4 = load i32, ptr %3, align 8, !tbaa !25
  %5 = getelementptr inbounds nuw i8, ptr %0, i64 16
  %6 = load ptr, ptr %5, align 8, !tbaa !26
  %7 = getelementptr inbounds nuw i8, ptr %0, i64 24
  %8 = load i64, ptr %7, align 8, !tbaa !27
  %9 = trunc i64 %8 to i32
  %10 = getelementptr inbounds nuw i8, ptr %0, i64 32
  %11 = load ptr, ptr %10, align 8, !tbaa !28
  %12 = getelementptr inbounds nuw i8, ptr %0, i64 40
  %13 = load i64, ptr %12, align 8, !tbaa !29
  %14 = trunc i64 %13 to i32
  %15 = getelementptr inbounds nuw i8, ptr %0, i64 12
  %16 = load i32, ptr %15, align 4, !tbaa !30
  %17 = tail call i32 @getnameinfo(ptr noundef %2, i32 noundef %4, ptr noundef %6, i32 noundef %9, ptr noundef %11, i32 noundef %14, i32 noundef %16) #21
  %18 = tail call ptr @rb_errno_ptr() #21
  %19 = load i32, ptr %18, align 4, !tbaa !34
  %20 = getelementptr inbounds nuw i8, ptr %0, i64 72
  tail call void @rb_nativethread_lock_lock(ptr noundef nonnull %20) #21
  %21 = getelementptr inbounds nuw i8, ptr %0, i64 48
  store i32 %17, ptr %21, align 8, !tbaa !36
  %22 = getelementptr inbounds nuw i8, ptr %0, i64 52
  store i32 %19, ptr %22, align 4, !tbaa !37
  %23 = getelementptr inbounds nuw i8, ptr %0, i64 64
  %24 = load i32, ptr %23, align 8, !tbaa !32
  %.not = icmp eq i32 %24, 0
  br i1 %.not, label %25, label %28

25:                                               ; preds = %1
  %26 = getelementptr inbounds nuw i8, ptr %0, i64 60
  store i32 1, ptr %26, align 4, !tbaa !33
  %27 = getelementptr inbounds nuw i8, ptr %0, i64 112
  tail call void @rb_native_cond_signal(ptr noundef nonnull %27) #21
  br label %28

28:                                               ; preds = %25, %1
  %29 = getelementptr inbounds nuw i8, ptr %0, i64 56
  %30 = load i32, ptr %29, align 8, !tbaa !31
  %31 = add nsw i32 %30, -1
  store i32 %31, ptr %29, align 8, !tbaa !31
  %.not20 = icmp eq i32 %31, 0
  tail call void @rb_nativethread_lock_unlock(ptr noundef nonnull %20) #21
  br i1 %.not20, label %32, label %34

32:                                               ; preds = %28
  %33 = getelementptr inbounds nuw i8, ptr %0, i64 112
  tail call void @rb_native_cond_destroy(ptr noundef nonnull %33) #21
  tail call void @rb_nativethread_lock_destroy(ptr noundef nonnull %20) #21
  tail call void @free(ptr noundef nonnull %0) #21
  br label %34

34:                                               ; preds = %32, %28
  ret ptr null
}